#include <math.h>
#include <stdio.h>
#include <stdlib.h>
#include <string.h>

void main()
{


struct student
{
int num;
int a;
int b;
}stu[100000];

int n,i,sum=0,max1=0,max2=0,max3=0,t=0;
scanf("%d",&n);

for(i=0;i<n;i++)
{
scanf("%d %d %d",&stu[i].num,&stu[i].a,&stu[i].b);
sum=stu[i].a+stu[i].b;
if (sum>max1) {max3=max2;max2=max1;max1=sum;}
else if ((sum<max1)&&(sum>max2)){max3=max2;max2=sum;}
else if ((sum<max2)&&(sum>max3)){max3=sum;}
}


for(i=0;i<n;i++)
{
sum=stu[i].a+stu[i].b;
if (sum==max1) {printf("%d %d\n",stu[i].num,max1);t++;}
}

for(i=0;i<n;i++)
{
sum=stu[i].a+stu[i].b;
if ((sum==max2)&&(t<3)) {printf("%d %d\n",stu[i].num,max2);t++;}
}

for(i=0;i<n;i++)
{
sum=stu[i].a+stu[i].b;
if ((sum==max3)&&(t<3)) {printf("%d %d\n",stu[i].num,max3);t++;}
}


}